; Function Attrs: mustprogress uwtable
define void @_ZN4base28PersistentHistogramAllocator8Iterator17GetNextWithIgnoreEj(ptr dead_on_unwind noalias writable sret(%"class.std::unique_ptr.17") align 8 %0, ptr noundef nonnull align 8 dereferenceable(24) %1, i32 noundef %2) local_unnamed_addr #0 align 2 personality ptr @__gxx_personality_v0 {
  %4 = getelementptr inbounds nuw i8, ptr %1, i64 8
  br label %5

5:                                                ; preds = %7, %3
  %6 = tail call noundef i32 @_ZN4base25PersistentMemoryAllocator8Iterator13GetNextOfTypeEj(ptr noundef nonnull align 8 dereferenceable(16) %4, i32 noundef -245081838)
  %.not = icmp eq i32 %6, 0
  br i1 %.not, label %10, label %7

7:                                                ; preds = %5
  %.not3 = icmp eq i32 %6, %2
  br i1 %.not3, label %5, label %8, !llvm.loop !62

8:                                                ; preds = %7
  %9 = load ptr, ptr %1, align 8, !tbaa !58
  tail call void @_ZN4base28PersistentHistogramAllocator12GetHistogramEj(ptr dead_on_unwind writable sret(%"class.std::unique_ptr.17") align 8 %0, ptr noundef nonnull align 8 dereferenceable(132) %9, i32 noundef %6)
  br label %11

10:                                               ; preds = %5
  store ptr null, ptr %0, align 8, !tbaa !63
  br label %11

11:                                               ; preds = %10, %8
  ret void
}